; Function Attrs: mustprogress uwtable
define noundef ptr @_ZNK6icu_7723IslamicUmalquraCalendar5cloneEv(ptr noundef nonnull align 8 dereferenceable(192) %0) unnamed_addr #1 align 2 personality ptr @__gxx_personality_v0 {
  %2 = tail call noundef ptr @_ZN6icu_777UMemorynwEm(i64 noundef 192) #10
  %3 = icmp eq ptr %2, null
  br i1 %3, label %5, label %4

4:                                                ; preds = %1
  invoke void @_ZN6icu_778CalendarC2ERKS0_(ptr noundef nonnull align 8 dereferenceable(192) %2, ptr noundef nonnull align 8 dereferenceable(192) %0)
          to label %_ZN6icu_7723IslamicUmalquraCalendarC2ERKS0_.exit unwind label %6

_ZN6icu_7723IslamicUmalquraCalendarC2ERKS0_.exit: ; preds = %4
  store ptr getelementptr inbounds nuw inrange(-16, 480) (i8, ptr @_ZTVN6icu_7723IslamicUmalquraCalendarE, i64 16), ptr %2, align 8, !tbaa !3
  br label %5

5:                                                ; preds = %_ZN6icu_7723IslamicUmalquraCalendarC2ERKS0_.exit, %1
  ret ptr %2

6:                                                ; preds = %4
  %7 = landingpad { ptr, i32 }
          cleanup
  tail call void @_ZN6icu_777UMemorydlEPv(ptr noundef nonnull %2) #10
  resume { ptr, i32 } %7
}